; Function Attrs: nounwind uwtable
define internal fastcc void @close_destination_dir(ptr noundef nonnull captures(none) %0, ptr noundef %1) unnamed_addr #4 {
  %3 = tail call i32 @closedir(ptr noundef nonnull %0)
  %.not = icmp eq i32 %3, 0
  br i1 %.not, label %5, label %4

4:                                                ; preds = %2
  tail call void (i32, i32, ptr, ...) @pg_log_generic(i32 noundef 4, i32 noundef 0, ptr noundef nonnull @.str.80, ptr noundef %1) #12
  tail call void @exit(i32 noundef 1) #15
  unreachable

5:                                                ; preds = %2
  ret void
}